; Function Attrs: mustprogress null_pointer_is_valid sspstrong uwtable
define void @_ZN22LayoutPreferencesFrame38on_pane3PacketBytesRadioButton_toggledEb(ptr noundef readonly align 8 captures(none) dereferenceable_or_null(136) %0, i1 noundef zeroext %1) local_unnamed_addr #0 align 2 {
  br i1 %1, label %3, label %25

3:                                                ; preds = %2
  %4 = getelementptr inbounds nuw i8, ptr %0, i64 72
  %5 = load ptr, ptr %4, align 8
  %6 = tail call i32 @prefs_set_enum_value(ptr noundef %5, i32 noundef 3, i32 noundef 1)
  %7 = getelementptr inbounds nuw i8, ptr %0, i64 40
  %8 = load ptr, ptr %7, align 8
  %9 = getelementptr inbounds nuw i8, ptr %8, i64 104
  %10 = load ptr, ptr %9, align 8
  %11 = tail call noundef zeroext i1 @_ZNK15QAbstractButton9isCheckedEv(ptr noundef align 8 dereferenceable_or_null(40) %10)
  br i1 %11, label %12, label %16

12:                                               ; preds = %3
  %13 = load ptr, ptr %7, align 8
  %14 = getelementptr inbounds nuw i8, ptr %13, i64 120
  %15 = load ptr, ptr %14, align 8
  tail call void @_ZN15QAbstractButton5clickEv(ptr noundef align 8 dereferenceable_or_null(40) %15)
  br label %16

16:                                               ; preds = %12, %3
  %17 = load ptr, ptr %7, align 8
  %18 = getelementptr inbounds nuw i8, ptr %17, i64 160
  %19 = load ptr, ptr %18, align 8
  %20 = tail call noundef zeroext i1 @_ZNK15QAbstractButton9isCheckedEv(ptr noundef align 8 dereferenceable_or_null(40) %19)
  br i1 %20, label %21, label %25

21:                                               ; preds = %16
  %22 = load ptr, ptr %7, align 8
  %23 = getelementptr inbounds nuw i8, ptr %22, i64 176
  %24 = load ptr, ptr %23, align 8
  tail call void @_ZN15QAbstractButton5clickEv(ptr noundef align 8 dereferenceable_or_null(40) %24)
  br label %25

25:                                               ; preds = %2, %21, %16
  ret void
}